(dp0
(I6
I9
tp1
(dp2
(I6
I10
tp3
F-10006.0
s(I5
I10
tp4
F-10009.0
ss(I6
I7
tp5
(dp6
(I8
I6
tp7
F-5024.0
s(I5
I8
tp8
F-9.0
ss(I6
I8
tp9
(dp10
(I5
I7
tp11
F-5027.5
s(I8
I7
tp12
F-2.0
ss(I6
I6
tp13
(dp14
(I5
I6
tp15
F-9986.0
s(I5
I9
tp16
F-9987.0
s(I5
I5
tp17
F-3.0
ss(I5
I6
tp18
(dp19
(I6
I7
tp20
F1.0
ss(I7
I5
tp21
(dp22
(I5
I7
tp23
F-8.0
ss(I4
I7
tp24
(dp25
(I6
I8
tp26
F-5020.0
ss(I3
I8
tp27
(dp28
(I9
I4
tp29
F-9993.0
ss(I8
I8
tp30
(dp31
(I7
I8
tp32
F-1.0
ss(I8
I7
tp33
(dp34
(I8
I9
tp35
F0.0
ss(I8
I4
tp36
(dp37
(I5
I8
tp38
F-11.0
ss(I6
I5
tp39
(dp40
(I4
I8
tp41
F-10013.0
ss(I7
I9
tp42
(dp43
(I9
I7
tp44
F-3.0
ss.